; Function Attrs: nounwind sspstrong uwtable
define internal ptr @virtio_9p_device_get_driver(ptr noundef readonly captures(ret: address, provenance) %0, ptr noundef %1) #0 {
  %3 = getelementptr inbounds nuw i8, ptr %0, i64 40
  %4 = tail call i32 @g_strcmp0(ptr noundef %1, ptr noundef nonnull @.str.21) #13
  %.not.i = icmp eq i32 %4, 0
  br i1 %.not.i, label %virtio_9p_get_driver.exit, label %5

5:                                                ; preds = %2
  %6 = tail call i32 @g_strcmp0(ptr noundef %1, ptr noundef nonnull @.str.20) #13
  %.not6.i = icmp eq i32 %6, 0
  br i1 %.not6.i, label %7, label %9

7:                                                ; preds = %5
  %8 = load ptr, ptr %3, align 8
  br label %virtio_9p_get_driver.exit

9:                                                ; preds = %5
  %10 = load ptr, ptr @stderr, align 8
  %11 = tail call i32 (ptr, i32, ptr, ...) @__fprintf_chk(ptr noundef %10, i32 noundef 1, ptr noundef nonnull @.str.25, ptr noundef %1) #13
  tail call void @g_assertion_message_expr(ptr noundef null, ptr noundef nonnull @.str, i32 noundef 127, ptr noundef nonnull @__func__.virtio_9p_get_driver, ptr noundef null) #12
  unreachable

virtio_9p_get_driver.exit:                        ; preds = %2, %7
  %.0.i = phi ptr [ %8, %7 ], [ %3, %2 ]
  ret ptr %.0.i
}